target datalayout = "e-m:e-p270:32:32-p271:32:32-p272:64:64-i64:64-i128:128-f80:128-n8:16:32:64-S128"
target triple = "x86_64-pc-linux-gnu"

%struct.RedisModuleCtx = type { ptr, ptr, ptr, ptr, ptr, i32, i32, i32, ptr, i32, ptr, ptr, ptr, ptr, i64, ptr }
%struct.RedisModuleBlockedClient = type { ptr, ptr, ptr, ptr, ptr, ptr, ptr, ptr, ptr, ptr, i32, i32, i32, i64, i64, i32 }
%struct.__va_list_tag = type { i32, i32, ptr, ptr }

@.str.36 = private unnamed_addr constant [4 x i8] c"-%s\00", align 1

; Function Attrs: nounwind uwtable
define dso_local ptr @moduleGetReplyClient(ptr noundef %0) #0 {
  %2 = alloca ptr, align 8
  %3 = alloca ptr, align 8
  store ptr %0, ptr %3, align 8, !tbaa !13
  %4 = load ptr, ptr %3, align 8, !tbaa !13
  %5 = getelementptr inbounds nuw %struct.RedisModuleCtx, ptr %4, i32 0, i32 7
  %6 = load i32, ptr %5, align 8, !tbaa !98
  %7 = and i32 %6, 16
  %8 = icmp ne i32 %7, 0
  br i1 %8, label %9, label %21

9:                                                ; preds = %1
  %10 = load ptr, ptr %3, align 8, !tbaa !13
  %11 = getelementptr inbounds nuw %struct.RedisModuleCtx, ptr %10, i32 0, i32 3
  %12 = load ptr, ptr %11, align 8, !tbaa !321
  %13 = icmp ne ptr %12, null
  br i1 %13, label %14, label %20

14:                                               ; preds = %9
  %15 = load ptr, ptr %3, align 8, !tbaa !13
  %16 = getelementptr inbounds nuw %struct.RedisModuleCtx, ptr %15, i32 0, i32 3
  %17 = load ptr, ptr %16, align 8, !tbaa !321
  %18 = getelementptr inbounds nuw %struct.RedisModuleBlockedClient, ptr %17, i32 0, i32 9
  %19 = load ptr, ptr %18, align 8, !tbaa !322
  store ptr %19, ptr %2, align 8
  br label %25

20:                                               ; preds = %9
  store ptr null, ptr %2, align 8
  br label %25

21:                                               ; preds = %1
  %22 = load ptr, ptr %3, align 8, !tbaa !13
  %23 = getelementptr inbounds nuw %struct.RedisModuleCtx, ptr %22, i32 0, i32 2
  %24 = load ptr, ptr %23, align 8, !tbaa !106
  store ptr %24, ptr %2, align 8
  br label %25

25:                                               ; preds = %21, %20, %14
  %26 = load ptr, ptr %2, align 8
  ret ptr %26
}

; Function Attrs: nounwind uwtable
define dso_local i32 @RM_ReplyWithErrorFormat(ptr noundef %0, ptr noundef %1, ...) #0 {
  %3 = alloca i32, align 4
  %4 = alloca ptr, align 8
  %5 = alloca ptr, align 8
  %6 = alloca ptr, align 8
  %7 = alloca i32, align 4
  %8 = alloca i32, align 4
  %9 = alloca ptr, align 8
  %10 = alloca [1 x %struct.__va_list_tag], align 16
  store ptr %0, ptr %4, align 8, !tbaa !13
  store ptr %1, ptr %5, align 8, !tbaa !11
  call void @llvm.lifetime.start.p0(i64 8, ptr %6) #15
  %11 = load ptr, ptr %4, align 8, !tbaa !13
  %12 = call ptr @moduleGetReplyClient(ptr noundef %11)
  store ptr %12, ptr %6, align 8, !tbaa !31
  %13 = load ptr, ptr %6, align 8, !tbaa !31
  %14 = icmp eq ptr %13, null
  br i1 %14, label %15, label %16

15:                                               ; preds = %2
  store i32 0, ptr %3, align 4
  store i32 1, ptr %7, align 4
  br label %35

16:                                               ; preds = %2
  call void @llvm.lifetime.start.p0(i64 4, ptr %8) #15
  %17 = load ptr, ptr %5, align 8, !tbaa !11
  %18 = call i64 @strlen(ptr noundef %17) #19
  %19 = add i64 %18, 2
  %20 = trunc i64 %19 to i32
  store i32 %20, ptr %8, align 4, !tbaa !29
  call void @llvm.lifetime.start.p0(i64 8, ptr %9) #15
  %21 = load i32, ptr %8, align 4, !tbaa !29
  %22 = sext i32 %21 to i64
  %23 = call noalias ptr @zmalloc(i64 noundef %22) #16
  store ptr %23, ptr %9, align 8, !tbaa !11
  %24 = load ptr, ptr %9, align 8, !tbaa !11
  %25 = load i32, ptr %8, align 4, !tbaa !29
  %26 = sext i32 %25 to i64
  %27 = load ptr, ptr %5, align 8, !tbaa !11
  %28 = call i32 (ptr, i64, ptr, ...) @snprintf(ptr noundef %24, i64 noundef %26, ptr noundef @.str.36, ptr noundef %27) #15
  call void @llvm.lifetime.start.p0(i64 24, ptr %10) #15
  %29 = getelementptr inbounds [1 x %struct.__va_list_tag], ptr %10, i64 0, i64 0
  call void @llvm.va_start.p0(ptr %29)
  %30 = load ptr, ptr %6, align 8, !tbaa !31
  %31 = load ptr, ptr %9, align 8, !tbaa !11
  %32 = getelementptr inbounds [1 x %struct.__va_list_tag], ptr %10, i64 0, i64 0
  call void @addReplyErrorFormatInternal(ptr noundef %30, i32 noundef 0, ptr noundef %31, ptr noundef %32)
  %33 = getelementptr inbounds [1 x %struct.__va_list_tag], ptr %10, i64 0, i64 0
  call void @llvm.va_end.p0(ptr %33)
  %34 = load ptr, ptr %9, align 8, !tbaa !11
  call void @zfree(ptr noundef %34)
  store i32 0, ptr %3, align 4
  store i32 1, ptr %7, align 4
  call void @llvm.lifetime.end.p0(i64 24, ptr %10) #15
  call void @llvm.lifetime.end.p0(i64 8, ptr %9) #15
  call void @llvm.lifetime.end.p0(i64 4, ptr %8) #15
  br label %35

35:                                               ; preds = %16, %15
  call void @llvm.lifetime.end.p0(i64 8, ptr %6) #15
  %36 = load i32, ptr %3, align 4
  ret i32 %36
}