; Function Attrs: nounwind uwtable
define dso_local noundef i32 @RM_ReplyWithErrorFormat(ptr noundef readonly captures(none) %0, ptr noundef %1, ...) #0 {
  %3 = alloca [1 x %struct.__va_list_tag], align 16
  %4 = getelementptr inbounds nuw i8, ptr %0, i64 48
  %5 = load i32, ptr %4, align 8, !tbaa !87
  %6 = and i32 %5, 16
  %.not.i = icmp eq i32 %6, 0
  br i1 %.not.i, label %12, label %7

7:                                                ; preds = %2
  %8 = getelementptr inbounds nuw i8, ptr %0, i64 24
  %9 = load ptr, ptr %8, align 8, !tbaa !272
  %.not6.i = icmp eq ptr %9, null
  br i1 %.not6.i, label %moduleGetReplyClient.exit.thread, label %10

10:                                               ; preds = %7
  %11 = getelementptr inbounds nuw i8, ptr %9, i64 72
  br label %moduleGetReplyClient.exit

12:                                               ; preds = %2
  %13 = getelementptr inbounds nuw i8, ptr %0, i64 16
  br label %moduleGetReplyClient.exit

moduleGetReplyClient.exit:                        ; preds = %10, %12
  %.0.i.in = phi ptr [ %11, %10 ], [ %13, %12 ]
  %.0.i = load ptr, ptr %.0.i.in, align 8, !tbaa !28
  %14 = icmp eq ptr %.0.i, null
  br i1 %14, label %moduleGetReplyClient.exit.thread, label %15

15:                                               ; preds = %moduleGetReplyClient.exit
  %16 = tail call i64 @strlen(ptr noundef nonnull dereferenceable(1) %1) #39
  %17 = shl i64 %16, 32
  %sext = add i64 %17, 8589934592
  %18 = ashr exact i64 %sext, 32
  %19 = tail call noalias ptr @zmalloc(i64 noundef %18) #36
  %20 = tail call i32 (ptr, i64, ptr, ...) @snprintf(ptr noundef %19, i64 noundef %18, ptr noundef nonnull @.str.36, ptr noundef nonnull %1) #35
  call void @llvm.lifetime.start.p0(i64 24, ptr nonnull %3) #35
  call void @llvm.va_start.p0(ptr nonnull %3)
  call void @addReplyErrorFormatInternal(ptr noundef nonnull %.0.i, i32 noundef 0, ptr noundef %19, ptr noundef nonnull %3) #35
  call void @llvm.va_end.p0(ptr nonnull %3)
  call void @zfree(ptr noundef %19) #35
  call void @llvm.lifetime.end.p0(i64 24, ptr nonnull %3) #35
  br label %moduleGetReplyClient.exit.thread

moduleGetReplyClient.exit.thread:                 ; preds = %7, %moduleGetReplyClient.exit, %15
  ret i32 0
}